target datalayout = "e-m:e-p270:32:32-p271:32:32-p272:64:64-i64:64-i128:128-f80:128-n8:16:32:64-S128"
target triple = "x86_64-pc-linux-gnu"

%struct.PageHeaderData = type { %struct.PageXLogRecPtr, i16, i16, i16, i16, i16, i16, i32, [0 x %struct.ItemIdData] }
%struct.PageXLogRecPtr = type { i32, i32 }
%struct.ItemIdData = type { i32 }

@.str.1 = private unnamed_addr constant [10 x i8] c"bufpage.c\00", align 1
@.str.2 = private unnamed_addr constant [62 x i8] c"corrupted page pointers: lower = %u, upper = %u, special = %u\00", align 1
@__func__.PageIndexTupleDelete = private unnamed_addr constant [21 x i8] c"PageIndexTupleDelete\00", align 1
@.str.8 = private unnamed_addr constant [25 x i8] c"invalid index offnum: %u\00", align 1
@.str.9 = private unnamed_addr constant [47 x i8] c"corrupted line pointer: offset = %u, size = %u\00", align 1

; Function Attrs: inlinehint nounwind uwtable
define internal zeroext i1 @PageIsEmpty(ptr noundef %0) #3 {
  %2 = alloca ptr, align 8
  store ptr %0, ptr %2, align 8
  %3 = load ptr, ptr %2, align 8
  %4 = getelementptr inbounds nuw %struct.PageHeaderData, ptr %3, i32 0, i32 3
  %5 = load i16, ptr %4, align 4
  %6 = zext i16 %5 to i64
  %7 = icmp ule i64 %6, 24
  ret i1 %7
}

; Function Attrs: inlinehint nounwind uwtable
define internal ptr @PageGetItemId(ptr noundef %0, i16 noundef zeroext %1) #3 {
  %3 = alloca ptr, align 8
  %4 = alloca i16, align 2
  store ptr %0, ptr %3, align 8
  store i16 %1, ptr %4, align 2
  %5 = load ptr, ptr %3, align 8
  %6 = getelementptr inbounds nuw %struct.PageHeaderData, ptr %5, i32 0, i32 8
  %7 = load i16, ptr %4, align 2
  %8 = zext i16 %7 to i32
  %9 = sub i32 %8, 1
  %10 = sext i32 %9 to i64
  %11 = getelementptr inbounds [0 x %struct.ItemIdData], ptr %6, i64 0, i64 %10
  ret ptr %11
}

; Function Attrs: inlinehint nounwind uwtable
define internal zeroext i16 @PageGetMaxOffsetNumber(ptr noundef %0) #3 {
  %2 = alloca i16, align 2
  %3 = alloca ptr, align 8
  %4 = alloca ptr, align 8
  %5 = alloca i32, align 4
  store ptr %0, ptr %3, align 8
  call void @llvm.lifetime.start.p0(i64 8, ptr %4) #8
  %6 = load ptr, ptr %3, align 8
  store ptr %6, ptr %4, align 8
  %7 = load ptr, ptr %4, align 8
  %8 = getelementptr inbounds nuw %struct.PageHeaderData, ptr %7, i32 0, i32 3
  %9 = load i16, ptr %8, align 4
  %10 = zext i16 %9 to i64
  %11 = icmp ule i64 %10, 24
  br i1 %11, label %12, label %13

12:                                               ; preds = %1
  store i16 0, ptr %2, align 2
  store i32 1, ptr %5, align 4
  br label %21

13:                                               ; preds = %1
  %14 = load ptr, ptr %4, align 8
  %15 = getelementptr inbounds nuw %struct.PageHeaderData, ptr %14, i32 0, i32 3
  %16 = load i16, ptr %15, align 4
  %17 = zext i16 %16 to i64
  %18 = sub i64 %17, 24
  %19 = udiv i64 %18, 4
  %20 = trunc i64 %19 to i16
  store i16 %20, ptr %2, align 2
  store i32 1, ptr %5, align 4
  br label %21

21:                                               ; preds = %13, %12
  call void @llvm.lifetime.end.p0(i64 8, ptr %4) #8
  %22 = load i16, ptr %2, align 2
  ret i16 %22
}

; Function Attrs: nounwind uwtable
define dso_local void @PageIndexTupleDelete(ptr noundef %0, i16 noundef zeroext %1) #0 {
  %3 = alloca ptr, align 8
  %4 = alloca i16, align 2
  %5 = alloca ptr, align 8
  %6 = alloca ptr, align 8
  %7 = alloca ptr, align 8
  %8 = alloca i64, align 8
  %9 = alloca i32, align 4
  %10 = alloca i32, align 4
  %11 = alloca i32, align 4
  %12 = alloca i32, align 4
  %13 = alloca i32, align 4
  %14 = alloca ptr, align 8
  store ptr %0, ptr %3, align 8
  store i16 %1, ptr %4, align 2
  call void @llvm.lifetime.start.p0(i64 8, ptr %5) #8
  %15 = load ptr, ptr %3, align 8
  store ptr %15, ptr %5, align 8
  call void @llvm.lifetime.start.p0(i64 8, ptr %6) #8
  call void @llvm.lifetime.start.p0(i64 8, ptr %7) #8
  call void @llvm.lifetime.start.p0(i64 8, ptr %8) #8
  call void @llvm.lifetime.start.p0(i64 4, ptr %9) #8
  call void @llvm.lifetime.start.p0(i64 4, ptr %10) #8
  call void @llvm.lifetime.start.p0(i64 4, ptr %11) #8
  call void @llvm.lifetime.start.p0(i64 4, ptr %12) #8
  %16 = load ptr, ptr %5, align 8
  %17 = getelementptr inbounds nuw %struct.PageHeaderData, ptr %16, i32 0, i32 3
  %18 = load i16, ptr %17, align 4
  %19 = zext i16 %18 to i64
  %20 = icmp ult i64 %19, 24
  br i1 %20, label %59, label %21

21:                                               ; preds = %2
  %22 = load ptr, ptr %5, align 8
  %23 = getelementptr inbounds nuw %struct.PageHeaderData, ptr %22, i32 0, i32 3
  %24 = load i16, ptr %23, align 4
  %25 = zext i16 %24 to i32
  %26 = load ptr, ptr %5, align 8
  %27 = getelementptr inbounds nuw %struct.PageHeaderData, ptr %26, i32 0, i32 4
  %28 = load i16, ptr %27, align 2
  %29 = zext i16 %28 to i32
  %30 = icmp sgt i32 %25, %29
  br i1 %30, label %59, label %31

31:                                               ; preds = %21
  %32 = load ptr, ptr %5, align 8
  %33 = getelementptr inbounds nuw %struct.PageHeaderData, ptr %32, i32 0, i32 4
  %34 = load i16, ptr %33, align 2
  %35 = zext i16 %34 to i32
  %36 = load ptr, ptr %5, align 8
  %37 = getelementptr inbounds nuw %struct.PageHeaderData, ptr %36, i32 0, i32 5
  %38 = load i16, ptr %37, align 4
  %39 = zext i16 %38 to i32
  %40 = icmp sgt i32 %35, %39
  br i1 %40, label %59, label %41

41:                                               ; preds = %31
  %42 = load ptr, ptr %5, align 8
  %43 = getelementptr inbounds nuw %struct.PageHeaderData, ptr %42, i32 0, i32 5
  %44 = load i16, ptr %43, align 4
  %45 = zext i16 %44 to i32
  %46 = icmp sgt i32 %45, 8192
  br i1 %46, label %59, label %47

47:                                               ; preds = %41
  %48 = load ptr, ptr %5, align 8
  %49 = getelementptr inbounds nuw %struct.PageHeaderData, ptr %48, i32 0, i32 5
  %50 = load i16, ptr %49, align 4
  %51 = zext i16 %50 to i64
  %52 = load ptr, ptr %5, align 8
  %53 = getelementptr inbounds nuw %struct.PageHeaderData, ptr %52, i32 0, i32 5
  %54 = load i16, ptr %53, align 4
  %55 = zext i16 %54 to i64
  %56 = add i64 %55, 7
  %57 = and i64 %56, -8
  %58 = icmp ne i64 %51, %57
  br i1 %58, label %59, label %83

59:                                               ; preds = %47, %41, %31, %21, %2
  br label %60

60:                                               ; preds = %59
  br i1 true, label %61, label %63

61:                                               ; preds = %60
  %62 = call zeroext i1 @errstart_cold(i32 noundef 21, ptr noundef null) #9
  br i1 %62, label %65, label %80

63:                                               ; preds = %60
  %64 = call zeroext i1 @errstart(i32 noundef 21, ptr noundef null)
  br i1 %64, label %65, label %80

65:                                               ; preds = %63, %61
  %66 = call i32 @errcode(i32 noundef 16779816)
  %67 = load ptr, ptr %5, align 8
  %68 = getelementptr inbounds nuw %struct.PageHeaderData, ptr %67, i32 0, i32 3
  %69 = load i16, ptr %68, align 4
  %70 = zext i16 %69 to i32
  %71 = load ptr, ptr %5, align 8
  %72 = getelementptr inbounds nuw %struct.PageHeaderData, ptr %71, i32 0, i32 4
  %73 = load i16, ptr %72, align 2
  %74 = zext i16 %73 to i32
  %75 = load ptr, ptr %5, align 8
  %76 = getelementptr inbounds nuw %struct.PageHeaderData, ptr %75, i32 0, i32 5
  %77 = load i16, ptr %76, align 4
  %78 = zext i16 %77 to i32
  %79 = call i32 (ptr, ...) @errmsg(ptr noundef @.str.2, i32 noundef %70, i32 noundef %74, i32 noundef %78)
  call void @errfinish(ptr noundef @.str.1, i32 noundef 1063, ptr noundef @__func__.PageIndexTupleDelete)
  br label %80

80:                                               ; preds = %65, %63, %61
  unreachable

81:                                               ; No predecessors!
  br label %82

82:                                               ; preds = %81
  br label %83

83:                                               ; preds = %82, %47
  %84 = load ptr, ptr %3, align 8
  %85 = call zeroext i16 @PageGetMaxOffsetNumber(ptr noundef %84)
  %86 = zext i16 %85 to i32
  store i32 %86, ptr %12, align 4
  %87 = load i16, ptr %4, align 2
  %88 = zext i16 %87 to i32
  %89 = icmp sle i32 %88, 0
  br i1 %89, label %95, label %90

90:                                               ; preds = %83
  %91 = load i16, ptr %4, align 2
  %92 = zext i16 %91 to i32
  %93 = load i32, ptr %12, align 4
  %94 = icmp sgt i32 %92, %93
  br i1 %94, label %95, label %108

95:                                               ; preds = %90, %83
  br label %96

96:                                               ; preds = %95
  br i1 true, label %97, label %99

97:                                               ; preds = %96
  %98 = call zeroext i1 @errstart_cold(i32 noundef 21, ptr noundef null) #9
  br i1 %98, label %101, label %105

99:                                               ; preds = %96
  %100 = call zeroext i1 @errstart(i32 noundef 21, ptr noundef null)
  br i1 %100, label %101, label %105

101:                                              ; preds = %99, %97
  %102 = load i16, ptr %4, align 2
  %103 = zext i16 %102 to i32
  %104 = call i32 (ptr, ...) @errmsg_internal(ptr noundef @.str.8, i32 noundef %103)
  call void @errfinish(ptr noundef @.str.1, i32 noundef 1067, ptr noundef @__func__.PageIndexTupleDelete)
  br label %105

105:                                              ; preds = %101, %99, %97
  unreachable

106:                                              ; No predecessors!
  br label %107

107:                                              ; preds = %106
  br label %108

108:                                              ; preds = %107, %90
  %109 = load i16, ptr %4, align 2
  %110 = zext i16 %109 to i32
  %111 = sub i32 %110, 1
  store i32 %111, ptr %11, align 4
  %112 = load ptr, ptr %3, align 8
  %113 = load i16, ptr %4, align 2
  %114 = call ptr @PageGetItemId(ptr noundef %112, i16 noundef zeroext %113)
  store ptr %114, ptr %7, align 8
  %115 = load ptr, ptr %7, align 8
  %116 = load i32, ptr %115, align 4
  %117 = lshr i32 %116, 17
  %118 = zext i32 %117 to i64
  store i64 %118, ptr %8, align 8
  %119 = load ptr, ptr %7, align 8
  %120 = load i32, ptr %119, align 4
  %121 = and i32 %120, 32767
  store i32 %121, ptr %9, align 4
  %122 = load i32, ptr %9, align 4
  %123 = load ptr, ptr %5, align 8
  %124 = getelementptr inbounds nuw %struct.PageHeaderData, ptr %123, i32 0, i32 4
  %125 = load i16, ptr %124, align 2
  %126 = zext i16 %125 to i32
  %127 = icmp ult i32 %122, %126
  br i1 %127, label %146, label %128

128:                                              ; preds = %108
  %129 = load i32, ptr %9, align 4
  %130 = zext i32 %129 to i64
  %131 = load i64, ptr %8, align 8
  %132 = add i64 %130, %131
  %133 = load ptr, ptr %5, align 8
  %134 = getelementptr inbounds nuw %struct.PageHeaderData, ptr %133, i32 0, i32 5
  %135 = load i16, ptr %134, align 4
  %136 = zext i16 %135 to i64
  %137 = icmp ugt i64 %132, %136
  br i1 %137, label %146, label %138

138:                                              ; preds = %128
  %139 = load i32, ptr %9, align 4
  %140 = zext i32 %139 to i64
  %141 = load i32, ptr %9, align 4
  %142 = zext i32 %141 to i64
  %143 = add i64 %142, 7
  %144 = and i64 %143, -8
  %145 = icmp ne i64 %140, %144
  br i1 %145, label %146, label %161

146:                                              ; preds = %138, %128, %108
  br label %147

147:                                              ; preds = %146
  br i1 true, label %148, label %150

148:                                              ; preds = %147
  %149 = call zeroext i1 @errstart_cold(i32 noundef 21, ptr noundef null) #9
  br i1 %149, label %152, label %158

150:                                              ; preds = %147
  %151 = call zeroext i1 @errstart(i32 noundef 21, ptr noundef null)
  br i1 %151, label %152, label %158

152:                                              ; preds = %150, %148
  %153 = call i32 @errcode(i32 noundef 16779816)
  %154 = load i32, ptr %9, align 4
  %155 = load i64, ptr %8, align 8
  %156 = trunc i64 %155 to i32
  %157 = call i32 (ptr, ...) @errmsg(ptr noundef @.str.9, i32 noundef %154, i32 noundef %156)
  call void @errfinish(ptr noundef @.str.1, i32 noundef 1082, ptr noundef @__func__.PageIndexTupleDelete)
  br label %158

158:                                              ; preds = %152, %150, %148
  unreachable

159:                                              ; No predecessors!
  br label %160

160:                                              ; preds = %159
  br label %161

161:                                              ; preds = %160, %138
  %162 = load i64, ptr %8, align 8
  %163 = add i64 %162, 7
  %164 = and i64 %163, -8
  store i64 %164, ptr %8, align 8
  %165 = load ptr, ptr %5, align 8
  %166 = getelementptr inbounds nuw %struct.PageHeaderData, ptr %165, i32 0, i32 3
  %167 = load i16, ptr %166, align 4
  %168 = zext i16 %167 to i64
  %169 = load ptr, ptr %5, align 8
  %170 = getelementptr inbounds nuw %struct.PageHeaderData, ptr %169, i32 0, i32 8
  %171 = load i32, ptr %11, align 4
  %172 = add i32 %171, 1
  %173 = sext i32 %172 to i64
  %174 = getelementptr inbounds [0 x %struct.ItemIdData], ptr %170, i64 0, i64 %173
  %175 = load ptr, ptr %5, align 8
  %176 = ptrtoint ptr %174 to i64
  %177 = ptrtoint ptr %175 to i64
  %178 = sub i64 %176, %177
  %179 = sub i64 %168, %178
  %180 = trunc i64 %179 to i32
  store i32 %180, ptr %10, align 4
  %181 = load i32, ptr %10, align 4
  %182 = icmp sgt i32 %181, 0
  br i1 %182, label %183, label %197

183:                                              ; preds = %161
  %184 = load ptr, ptr %5, align 8
  %185 = getelementptr inbounds nuw %struct.PageHeaderData, ptr %184, i32 0, i32 8
  %186 = load i32, ptr %11, align 4
  %187 = sext i32 %186 to i64
  %188 = getelementptr inbounds [0 x %struct.ItemIdData], ptr %185, i64 0, i64 %187
  %189 = load ptr, ptr %5, align 8
  %190 = getelementptr inbounds nuw %struct.PageHeaderData, ptr %189, i32 0, i32 8
  %191 = load i32, ptr %11, align 4
  %192 = add i32 %191, 1
  %193 = sext i32 %192 to i64
  %194 = getelementptr inbounds [0 x %struct.ItemIdData], ptr %190, i64 0, i64 %193
  %195 = load i32, ptr %10, align 4
  %196 = sext i32 %195 to i64
  call void @llvm.memmove.p0.p0.i64(ptr align 4 %188, ptr align 4 %194, i64 %196, i1 false)
  br label %197

197:                                              ; preds = %183, %161
  %198 = load ptr, ptr %3, align 8
  %199 = load ptr, ptr %5, align 8
  %200 = getelementptr inbounds nuw %struct.PageHeaderData, ptr %199, i32 0, i32 4
  %201 = load i16, ptr %200, align 2
  %202 = zext i16 %201 to i32
  %203 = sext i32 %202 to i64
  %204 = getelementptr inbounds i8, ptr %198, i64 %203
  store ptr %204, ptr %6, align 8
  %205 = load i32, ptr %9, align 4
  %206 = load ptr, ptr %5, align 8
  %207 = getelementptr inbounds nuw %struct.PageHeaderData, ptr %206, i32 0, i32 4
  %208 = load i16, ptr %207, align 2
  %209 = zext i16 %208 to i32
  %210 = icmp ugt i32 %205, %209
  br i1 %210, label %211, label %223

211:                                              ; preds = %197
  %212 = load ptr, ptr %6, align 8
  %213 = load i64, ptr %8, align 8
  %214 = getelementptr inbounds nuw i8, ptr %212, i64 %213
  %215 = load ptr, ptr %6, align 8
  %216 = load i32, ptr %9, align 4
  %217 = load ptr, ptr %5, align 8
  %218 = getelementptr inbounds nuw %struct.PageHeaderData, ptr %217, i32 0, i32 4
  %219 = load i16, ptr %218, align 2
  %220 = zext i16 %219 to i32
  %221 = sub i32 %216, %220
  %222 = zext i32 %221 to i64
  call void @llvm.memmove.p0.p0.i64(ptr align 1 %214, ptr align 1 %215, i64 %222, i1 false)
  br label %223

223:                                              ; preds = %211, %197
  %224 = load i64, ptr %8, align 8
  %225 = load ptr, ptr %5, align 8
  %226 = getelementptr inbounds nuw %struct.PageHeaderData, ptr %225, i32 0, i32 4
  %227 = load i16, ptr %226, align 2
  %228 = zext i16 %227 to i64
  %229 = add i64 %228, %224
  %230 = trunc i64 %229 to i16
  store i16 %230, ptr %226, align 2
  %231 = load ptr, ptr %5, align 8
  %232 = getelementptr inbounds nuw %struct.PageHeaderData, ptr %231, i32 0, i32 3
  %233 = load i16, ptr %232, align 4
  %234 = zext i16 %233 to i64
  %235 = sub i64 %234, 4
  %236 = trunc i64 %235 to i16
  store i16 %236, ptr %232, align 4
  %237 = load ptr, ptr %3, align 8
  %238 = call zeroext i1 @PageIsEmpty(ptr noundef %237)
  br i1 %238, label %273, label %239

239:                                              ; preds = %223
  call void @llvm.lifetime.start.p0(i64 4, ptr %13) #8
  %240 = load i32, ptr %12, align 4
  %241 = add i32 %240, -1
  store i32 %241, ptr %12, align 4
  store i32 1, ptr %13, align 4
  br label %242

242:                                              ; preds = %269, %239
  %243 = load i32, ptr %13, align 4
  %244 = load i32, ptr %12, align 4
  %245 = icmp sle i32 %243, %244
  br i1 %245, label %246, label %272

246:                                              ; preds = %242
  call void @llvm.lifetime.start.p0(i64 8, ptr %14) #8
  %247 = load ptr, ptr %3, align 8
  %248 = load i32, ptr %13, align 4
  %249 = trunc i32 %248 to i16
  %250 = call ptr @PageGetItemId(ptr noundef %247, i16 noundef zeroext %249)
  store ptr %250, ptr %14, align 8
  %251 = load ptr, ptr %14, align 8
  %252 = load i32, ptr %251, align 4
  %253 = and i32 %252, 32767
  %254 = load i32, ptr %9, align 4
  %255 = icmp ule i32 %253, %254
  br i1 %255, label %256, label %268

256:                                              ; preds = %246
  %257 = load i64, ptr %8, align 8
  %258 = load ptr, ptr %14, align 8
  %259 = load i32, ptr %258, align 4
  %260 = and i32 %259, 32767
  %261 = zext i32 %260 to i64
  %262 = add i64 %261, %257
  %263 = trunc i64 %262 to i32
  %264 = load i32, ptr %258, align 4
  %265 = and i32 %263, 32767
  %266 = and i32 %264, -32768
  %267 = or i32 %266, %265
  store i32 %267, ptr %258, align 4
  br label %268

268:                                              ; preds = %256, %246
  call void @llvm.lifetime.end.p0(i64 8, ptr %14) #8
  br label %269

269:                                              ; preds = %268
  %270 = load i32, ptr %13, align 4
  %271 = add i32 %270, 1
  store i32 %271, ptr %13, align 4
  br label %242, !llvm.loop !25

272:                                              ; preds = %242
  call void @llvm.lifetime.end.p0(i64 4, ptr %13) #8
  br label %273

273:                                              ; preds = %272, %223
  call void @llvm.lifetime.end.p0(i64 4, ptr %12) #8
  call void @llvm.lifetime.end.p0(i64 4, ptr %11) #8
  call void @llvm.lifetime.end.p0(i64 4, ptr %10) #8
  call void @llvm.lifetime.end.p0(i64 4, ptr %9) #8
  call void @llvm.lifetime.end.p0(i64 8, ptr %8) #8
  call void @llvm.lifetime.end.p0(i64 8, ptr %7) #8
  call void @llvm.lifetime.end.p0(i64 8, ptr %6) #8
  call void @llvm.lifetime.end.p0(i64 8, ptr %5) #8
  ret void
}