; Function Attrs: nounwind uwtable
define dso_local void @PageIndexTupleDelete(ptr noundef %0, i16 noundef zeroext %1) local_unnamed_addr #3 {
  %3 = getelementptr inbounds nuw i8, ptr %0, i64 12
  %4 = load i16, ptr %3, align 4
  %5 = icmp ult i16 %4, 24
  br i1 %5, label %19, label %6

6:                                                ; preds = %2
  %7 = getelementptr inbounds nuw i8, ptr %0, i64 14
  %8 = load i16, ptr %7, align 2
  %9 = icmp ugt i16 %4, %8
  br i1 %9, label %19, label %10

10:                                               ; preds = %6
  %11 = getelementptr inbounds nuw i8, ptr %0, i64 16
  %12 = load i16, ptr %11, align 4
  %13 = icmp ugt i16 %8, %12
  %14 = icmp ugt i16 %12, 8192
  %or.cond = or i1 %13, %14
  br i1 %or.cond, label %19, label %15

15:                                               ; preds = %10
  %16 = zext nneg i16 %12 to i64
  %17 = add nuw nsw i64 %16, 7
  %18 = and i64 %17, 32760
  %.not = icmp eq i64 %18, %16
  br i1 %.not, label %31, label %19

19:                                               ; preds = %15, %10, %6, %2
  %20 = tail call zeroext i1 @errstart_cold(i32 noundef 21, ptr noundef null) #13
  tail call void @llvm.assume(i1 %20)
  %21 = tail call i32 @errcode(i32 noundef 16779816) #12
  %22 = load i16, ptr %3, align 4
  %23 = zext i16 %22 to i32
  %24 = getelementptr inbounds nuw i8, ptr %0, i64 14
  %25 = load i16, ptr %24, align 2
  %26 = zext i16 %25 to i32
  %27 = getelementptr inbounds nuw i8, ptr %0, i64 16
  %28 = load i16, ptr %27, align 4
  %29 = zext i16 %28 to i32
  %30 = tail call i32 (ptr, ...) @errmsg(ptr noundef nonnull @.str.2, i32 noundef %23, i32 noundef %26, i32 noundef %29) #12
  tail call void @errfinish(ptr noundef nonnull @.str.1, i32 noundef 1063, ptr noundef nonnull @__func__.PageIndexTupleDelete) #12
  unreachable

31:                                               ; preds = %15
  %32 = icmp eq i16 %4, 24
  %33 = zext i16 %4 to i32
  %34 = add nuw nsw i32 %33, 262120
  %35 = lshr i32 %34, 2
  %36 = trunc i32 %35 to i16
  %.0.i = select i1 %32, i16 0, i16 %36
  %37 = freeze i16 %.0.i
  %38 = zext i16 %1 to i32
  %39 = add i16 %1, -1
  %or.cond75.not = icmp ult i16 %39, %37
  br i1 %or.cond75.not, label %43, label %40

40:                                               ; preds = %31
  %41 = tail call zeroext i1 @errstart_cold(i32 noundef 21, ptr noundef null) #13
  tail call void @llvm.assume(i1 %41)
  %42 = tail call i32 (ptr, ...) @errmsg_internal(ptr noundef nonnull @.str.8, i32 noundef %38) #12
  tail call void @errfinish(ptr noundef nonnull @.str.1, i32 noundef 1067, ptr noundef nonnull @__func__.PageIndexTupleDelete) #12
  unreachable

43:                                               ; preds = %31
  %44 = add nsw i32 %38, -1
  %45 = getelementptr inbounds nuw i8, ptr %0, i64 24
  %46 = zext nneg i16 %1 to i64
  %47 = add nsw i64 %46, -1
  %48 = getelementptr inbounds [0 x %struct.ItemIdData], ptr %45, i64 0, i64 %47
  %49 = load i32, ptr %48, align 4
  %50 = lshr i32 %49, 17
  %51 = zext nneg i32 %50 to i64
  %52 = and i32 %49, 32767
  %53 = zext i16 %8 to i32
  %54 = icmp samesign ult i32 %52, %53
  br i1 %54, label %62, label %55

55:                                               ; preds = %43
  %56 = zext nneg i32 %52 to i64
  %57 = add nuw nsw i64 %56, %51
  %58 = icmp samesign ugt i64 %57, %16
  br i1 %58, label %62, label %59

59:                                               ; preds = %55
  %60 = add nuw nsw i64 %56, 7
  %61 = and i64 %60, 65528
  %.not72 = icmp eq i64 %61, %56
  br i1 %.not72, label %66, label %62

62:                                               ; preds = %59, %55, %43
  %63 = tail call zeroext i1 @errstart_cold(i32 noundef 21, ptr noundef null) #13
  tail call void @llvm.assume(i1 %63)
  %64 = tail call i32 @errcode(i32 noundef 16779816) #12
  %65 = tail call i32 (ptr, ...) @errmsg(ptr noundef nonnull @.str.9, i32 noundef %52, i32 noundef %50) #12
  tail call void @errfinish(ptr noundef nonnull @.str.1, i32 noundef 1082, ptr noundef nonnull @__func__.PageIndexTupleDelete) #12
  unreachable

66:                                               ; preds = %59
  %67 = add nuw nsw i64 %51, 7
  %68 = and i64 %67, 65528
  %69 = zext i16 %4 to i64
  %70 = getelementptr inbounds nuw [0 x %struct.ItemIdData], ptr %45, i64 0, i64 %46
  %71 = ptrtoint ptr %70 to i64
  %72 = ptrtoint ptr %0 to i64
  %.neg = sub i64 %72, %71
  %73 = add i64 %.neg, %69
  %74 = trunc i64 %73 to i32
  %75 = icmp sgt i32 %74, 0
  br i1 %75, label %76, label %80

76:                                               ; preds = %66
  %77 = zext nneg i32 %44 to i64
  %78 = getelementptr inbounds nuw [0 x %struct.ItemIdData], ptr %45, i64 0, i64 %77
  %79 = and i64 %73, 2147483647
  tail call void @llvm.memmove.p0.p0.i64(ptr nonnull align 4 %78, ptr nonnull align 4 %70, i64 %79, i1 false)
  br label %80

80:                                               ; preds = %76, %66
  %81 = icmp samesign ugt i32 %52, %53
  br i1 %81, label %82, label %88

82:                                               ; preds = %80
  %83 = zext i16 %8 to i64
  %84 = getelementptr inbounds nuw i8, ptr %0, i64 %83
  %85 = getelementptr inbounds nuw i8, ptr %84, i64 %68
  %86 = sub nuw nsw i32 %52, %53
  %87 = zext nneg i32 %86 to i64
  tail call void @llvm.memmove.p0.p0.i64(ptr align 1 %85, ptr align 1 %84, i64 %87, i1 false)
  %.pre = load i16, ptr %7, align 2
  %.pre81 = load i16, ptr %3, align 4
  br label %88

88:                                               ; preds = %82, %80
  %89 = phi i16 [ %.pre81, %82 ], [ %4, %80 ]
  %90 = phi i16 [ %.pre, %82 ], [ %8, %80 ]
  %91 = trunc nuw i64 %68 to i16
  %92 = add i16 %90, %91
  store i16 %92, ptr %7, align 2
  %93 = add i16 %89, -4
  store i16 %93, ptr %3, align 4
  %94 = icmp ugt i16 %93, 24
  %.not73.not77 = icmp ugt i16 %37, 1
  %or.cond79 = and i1 %94, %.not73.not77
  br i1 %or.cond79, label %.lr.ph, label %.loopexit

.lr.ph:                                           ; preds = %88
  %95 = trunc nuw nsw i64 %68 to i32
  %wide.trip.count = zext i16 %37 to i64
  br label %96

96:                                               ; preds = %.lr.ph, %106
  %indvars.iv = phi i64 [ 1, %.lr.ph ], [ %indvars.iv.next, %106 ]
  %97 = add nsw i64 %indvars.iv, -1
  %98 = getelementptr inbounds [0 x %struct.ItemIdData], ptr %45, i64 0, i64 %97
  %99 = load i32, ptr %98, align 4
  %100 = and i32 %99, 32767
  %.not74 = icmp samesign ugt i32 %100, %52
  br i1 %.not74, label %106, label %101

101:                                              ; preds = %96
  %102 = add i32 %99, %95
  %103 = and i32 %102, 32767
  %104 = and i32 %99, -32768
  %105 = or disjoint i32 %103, %104
  store i32 %105, ptr %98, align 4
  br label %106

106:                                              ; preds = %101, %96
  %indvars.iv.next = add nuw nsw i64 %indvars.iv, 1
  %exitcond.not = icmp eq i64 %indvars.iv.next, %wide.trip.count
  br i1 %exitcond.not, label %.loopexit, label %96, !llvm.loop !21

.loopexit:                                        ; preds = %106, %88
  ret void
}